; Function Attrs: mustprogress nofree norecurse nounwind willreturn memory(argmem: readwrite) uwtable
define internal noundef i32 @evp_rand_up_ref(ptr noundef captures(address_is_null) %0) #2 {
  %.not = icmp eq ptr %0, null
  br i1 %.not, label %5, label %2

2:                                                ; preds = %1
  %3 = getelementptr inbounds nuw i8, ptr %0, i64 32
  %4 = atomicrmw add ptr %3, i32 1 monotonic, align 4
  br label %5

5:                                                ; preds = %1, %2
  ret i32 1
}